; Function Attrs: nounwind uwtable
define ptr @avio_find_protocol_name(ptr noundef %0) local_unnamed_addr #3 {
  %2 = tail call fastcc ptr @url_find_protocol(ptr noundef %0)
  %.not = icmp eq ptr %2, null
  br i1 %.not, label %5, label %3

3:                                                ; preds = %1
  %4 = load ptr, ptr %2, align 8, !tbaa !33
  br label %5

5:                                                ; preds = %1, %3
  %6 = phi ptr [ %4, %3 ], [ null, %1 ]
  ret ptr %6
}